; Function Attrs: mustprogress nounwind uwtable
define hidden void @_ZN16ModuleEntryTable6verifyEv(ptr nocapture noundef nonnull readonly align 8 dereferenceable(880) %0) local_unnamed_addr #0 align 2 {
  %2 = getelementptr inbounds i8, ptr %0, i64 872
  %3 = load i32, ptr %2, align 8
  %4 = icmp sgt i32 %3, 0
  br i1 %4, label %.preheader.i.i, label %"_ZNK21ResourceHashtableBaseI29FixedResourceHashtableStorageILj109E16SymbolHandleBaseILb0EEP11ModuleEntryES2_S4_LN6AnyObj15allocation_typeE2EL8MEMFLAGS20EXadL_ZNS2_12compute_hashERKS2_EEXadL_Z16primitive_equalsIS2_EbRKT_SE_EEE11iterate_allIZN16ModuleEntryTable6verifyEvE3$_0EEvSC_.exit"

.preheader.i.i:                                   ; preds = %1, %._crit_edge.i.i
  %.0.idx19.i.i = phi i64 [ %.0.add.i.i, %._crit_edge.i.i ], [ 0, %1 ]
  %.01218.i.i = phi i32 [ %.1.lcssa.i.i, %._crit_edge.i.i ], [ %3, %1 ]
  %.0.ptr20.i.i = getelementptr inbounds i8, ptr %0, i64 %.0.idx19.i.i
  %.01114.i.i = load ptr, ptr %.0.ptr20.i.i, align 8
  %.not15.i.i = icmp eq ptr %.01114.i.i, null
  br i1 %.not15.i.i, label %._crit_edge.i.i, label %.lr.ph.i.i

.lr.ph.i.i:                                       ; preds = %.preheader.i.i, %"_ZZNK21ResourceHashtableBaseI29FixedResourceHashtableStorageILj109E16SymbolHandleBaseILb0EEP11ModuleEntryES2_S4_LN6AnyObj15allocation_typeE2EL8MEMFLAGS20EXadL_ZNS2_12compute_hashERKS2_EEXadL_Z16primitive_equalsIS2_EbRKT_SE_EEE11iterate_allIZN16ModuleEntryTable6verifyEvE3$_0EEvSC_ENKUlRS2_RS4_E_clESJ_SK_.exit.i.i"
  %.01117.i.i = phi ptr [ %.011.i.i, %"_ZZNK21ResourceHashtableBaseI29FixedResourceHashtableStorageILj109E16SymbolHandleBaseILb0EEP11ModuleEntryES2_S4_LN6AnyObj15allocation_typeE2EL8MEMFLAGS20EXadL_ZNS2_12compute_hashERKS2_EEXadL_Z16primitive_equalsIS2_EbRKT_SE_EEE11iterate_allIZN16ModuleEntryTable6verifyEvE3$_0EEvSC_ENKUlRS2_RS4_E_clESJ_SK_.exit.i.i" ], [ %.01114.i.i, %.preheader.i.i ]
  %.116.i.i = phi i32 [ %10, %"_ZZNK21ResourceHashtableBaseI29FixedResourceHashtableStorageILj109E16SymbolHandleBaseILb0EEP11ModuleEntryES2_S4_LN6AnyObj15allocation_typeE2EL8MEMFLAGS20EXadL_ZNS2_12compute_hashERKS2_EEXadL_Z16primitive_equalsIS2_EbRKT_SE_EEE11iterate_allIZN16ModuleEntryTable6verifyEvE3$_0EEvSC_ENKUlRS2_RS4_E_clESJ_SK_.exit.i.i" ], [ %.01218.i.i, %.preheader.i.i ]
  %5 = getelementptr inbounds i8, ptr %.01117.i.i, i64 16
  %.val.i.i = load ptr, ptr %5, align 8
  %6 = getelementptr i8, ptr %.val.i.i, i64 24
  %.val.val.i.i = load ptr, ptr %6, align 8
  %.not.i.i.i.i.i = icmp eq ptr %.val.val.i.i, null
  br i1 %.not.i.i.i.i.i, label %7, label %"_ZZNK21ResourceHashtableBaseI29FixedResourceHashtableStorageILj109E16SymbolHandleBaseILb0EEP11ModuleEntryES2_S4_LN6AnyObj15allocation_typeE2EL8MEMFLAGS20EXadL_ZNS2_12compute_hashERKS2_EEXadL_Z16primitive_equalsIS2_EbRKT_SE_EEE11iterate_allIZN16ModuleEntryTable6verifyEvE3$_0EEvSC_ENKUlRS2_RS4_E_clESJ_SK_.exit.i.i"

7:                                                ; preds = %.lr.ph.i.i
  %8 = load ptr, ptr @g_assert_poison, align 8
  store i8 88, ptr %8, align 1
  tail call void (ptr, i32, ptr, ptr, ...) @_Z15report_vm_errorPKciS0_S0_z(ptr noundef nonnull @.str.9, i32 noundef 762, ptr noundef nonnull @.str.21, ptr noundef nonnull @.str.22) #18
  unreachable

"_ZZNK21ResourceHashtableBaseI29FixedResourceHashtableStorageILj109E16SymbolHandleBaseILb0EEP11ModuleEntryES2_S4_LN6AnyObj15allocation_typeE2EL8MEMFLAGS20EXadL_ZNS2_12compute_hashERKS2_EEXadL_Z16primitive_equalsIS2_EbRKT_SE_EEE11iterate_allIZN16ModuleEntryTable6verifyEvE3$_0EEvSC_ENKUlRS2_RS4_E_clESJ_SK_.exit.i.i": ; preds = %.lr.ph.i.i
  %9 = getelementptr inbounds i8, ptr %.01117.i.i, i64 24
  %10 = add nsw i32 %.116.i.i, -1
  %.011.i.i = load ptr, ptr %9, align 8
  %.not.i.i = icmp eq ptr %.011.i.i, null
  br i1 %.not.i.i, label %._crit_edge.i.i, label %.lr.ph.i.i, !llvm.loop !38

._crit_edge.i.i:                                  ; preds = %"_ZZNK21ResourceHashtableBaseI29FixedResourceHashtableStorageILj109E16SymbolHandleBaseILb0EEP11ModuleEntryES2_S4_LN6AnyObj15allocation_typeE2EL8MEMFLAGS20EXadL_ZNS2_12compute_hashERKS2_EEXadL_Z16primitive_equalsIS2_EbRKT_SE_EEE11iterate_allIZN16ModuleEntryTable6verifyEvE3$_0EEvSC_ENKUlRS2_RS4_E_clESJ_SK_.exit.i.i", %.preheader.i.i
  %.1.lcssa.i.i = phi i32 [ %.01218.i.i, %.preheader.i.i ], [ %10, %"_ZZNK21ResourceHashtableBaseI29FixedResourceHashtableStorageILj109E16SymbolHandleBaseILb0EEP11ModuleEntryES2_S4_LN6AnyObj15allocation_typeE2EL8MEMFLAGS20EXadL_ZNS2_12compute_hashERKS2_EEXadL_Z16primitive_equalsIS2_EbRKT_SE_EEE11iterate_allIZN16ModuleEntryTable6verifyEvE3$_0EEvSC_ENKUlRS2_RS4_E_clESJ_SK_.exit.i.i" ]
  %.0.add.i.i = add nuw nsw i64 %.0.idx19.i.i, 8
  %11 = icmp sgt i32 %.1.lcssa.i.i, 0
  %12 = icmp ult i64 %.0.idx19.i.i, 864
  %or.cond.i.i = and i1 %12, %11
  br i1 %or.cond.i.i, label %.preheader.i.i, label %"_ZNK21ResourceHashtableBaseI29FixedResourceHashtableStorageILj109E16SymbolHandleBaseILb0EEP11ModuleEntryES2_S4_LN6AnyObj15allocation_typeE2EL8MEMFLAGS20EXadL_ZNS2_12compute_hashERKS2_EEXadL_Z16primitive_equalsIS2_EbRKT_SE_EEE11iterate_allIZN16ModuleEntryTable6verifyEvE3$_0EEvSC_.exit", !llvm.loop !39

"_ZNK21ResourceHashtableBaseI29FixedResourceHashtableStorageILj109E16SymbolHandleBaseILb0EEP11ModuleEntryES2_S4_LN6AnyObj15allocation_typeE2EL8MEMFLAGS20EXadL_ZNS2_12compute_hashERKS2_EEXadL_Z16primitive_equalsIS2_EbRKT_SE_EEE11iterate_allIZN16ModuleEntryTable6verifyEvE3$_0EEvSC_.exit": ; preds = %._crit_edge.i.i, %1
  ret void
}